; Function Attrs: mustprogress nofree norecurse nosync nounwind memory(argmem: readwrite) uwtable
define noundef ptr @uprv_decNumberCopyNegate_77(ptr noundef returned %0, ptr noundef readonly %1) local_unnamed_addr #0 {
  %3 = icmp eq ptr %0, %1
  br i1 %3, label %uprv_decNumberCopy_77.exit, label %4

4:                                                ; preds = %2
  %5 = getelementptr inbounds nuw i8, ptr %1, i64 8
  %6 = load i8, ptr %5, align 4, !tbaa !3
  %7 = getelementptr inbounds nuw i8, ptr %0, i64 8
  store i8 %6, ptr %7, align 4, !tbaa !3
  %8 = getelementptr inbounds nuw i8, ptr %1, i64 4
  %9 = load i32, ptr %8, align 4, !tbaa !8
  %10 = getelementptr inbounds nuw i8, ptr %0, i64 4
  store i32 %9, ptr %10, align 4, !tbaa !8
  %11 = load i32, ptr %1, align 4, !tbaa !9
  store i32 %11, ptr %0, align 4, !tbaa !9
  %.ptr.i = getelementptr inbounds nuw i8, ptr %1, i64 9
  %12 = load i8, ptr %.ptr.i, align 1, !tbaa !10
  %13 = getelementptr inbounds nuw i8, ptr %0, i64 9
  store i8 %12, ptr %13, align 1, !tbaa !10
  %14 = load i32, ptr %1, align 4, !tbaa !9
  %15 = icmp sgt i32 %14, 1
  br i1 %15, label %16, label %uprv_decNumberCopy_77.exit

16:                                               ; preds = %4
  %17 = getelementptr inbounds nuw i8, ptr %0, i64 10
  %18 = icmp samesign ult i32 %14, 50
  br i1 %18, label %19, label %.thread.i

.thread.i:                                        ; preds = %16
  %narrow34.i = add nuw i32 %14, 9
  %.add35.i = zext i32 %narrow34.i to i64
  %.ptr3336.i = getelementptr inbounds nuw i8, ptr %1, i64 %.add35.i
  br label %.lr.ph.preheader.i

19:                                               ; preds = %16
  %20 = zext nneg i32 %14 to i64
  %21 = getelementptr inbounds nuw [50 x i8], ptr @_ZL8d2utable, i64 0, i64 %20
  %22 = load i8, ptr %21, align 1, !tbaa !10
  %23 = zext i8 %22 to i64
  %24 = getelementptr inbounds nuw i8, ptr %1, i64 %23
  %.ptr33.i = getelementptr inbounds nuw i8, ptr %24, i64 9
  br label %.lr.ph.preheader.i

.lr.ph.preheader.i:                               ; preds = %19, %.thread.i
  %.ptr3337.i = phi ptr [ %.ptr3336.i, %.thread.i ], [ %.ptr33.i, %19 ]
  %25 = getelementptr inbounds nuw i8, ptr %1, i64 10
  br label %.lr.ph.i

.lr.ph.i:                                         ; preds = %.lr.ph.i, %.lr.ph.preheader.i
  %.032.i = phi ptr [ %28, %.lr.ph.i ], [ %17, %.lr.ph.preheader.i ]
  %.02631.i = phi ptr [ %27, %.lr.ph.i ], [ %25, %.lr.ph.preheader.i ]
  %26 = load i8, ptr %.02631.i, align 1, !tbaa !10
  store i8 %26, ptr %.032.i, align 1, !tbaa !10
  %27 = getelementptr inbounds nuw i8, ptr %.02631.i, i64 1
  %28 = getelementptr inbounds nuw i8, ptr %.032.i, i64 1
  %29 = icmp ult ptr %27, %.ptr3337.i
  br i1 %29, label %.lr.ph.i, label %uprv_decNumberCopy_77.exit, !llvm.loop !49

uprv_decNumberCopy_77.exit:                       ; preds = %.lr.ph.i, %2, %4
  %30 = getelementptr inbounds nuw i8, ptr %0, i64 8
  %31 = load i8, ptr %30, align 4, !tbaa !3
  %32 = xor i8 %31, -128
  store i8 %32, ptr %30, align 4, !tbaa !3
  ret ptr %0
}